target datalayout = "e-m:e-p270:32:32-p271:32:32-p272:64:64-i64:64-i128:128-f80:128-n8:16:32:64-S128"
target triple = "x86_64-pc-linux-gnu"

; Function Attrs: nounwind uwtable
define hidden i32 @EVP_EncodedLength(ptr noundef %0, i64 noundef %1) #0 {
  %3 = alloca i32, align 4
  %4 = alloca ptr, align 8
  %5 = alloca i64, align 8
  store ptr %0, ptr %4, align 8, !tbaa !27
  store i64 %1, ptr %5, align 8, !tbaa !20
  %6 = load i64, ptr %5, align 8, !tbaa !20
  %7 = add i64 %6, 2
  %8 = load i64, ptr %5, align 8, !tbaa !20
  %9 = icmp ult i64 %7, %8
  br i1 %9, label %10, label %11

10:                                               ; preds = %2
  store i32 0, ptr %3, align 4
  br label %35

11:                                               ; preds = %2
  %12 = load i64, ptr %5, align 8, !tbaa !20
  %13 = add i64 %12, 2
  store i64 %13, ptr %5, align 8, !tbaa !20
  %14 = load i64, ptr %5, align 8, !tbaa !20
  %15 = udiv i64 %14, 3
  store i64 %15, ptr %5, align 8, !tbaa !20
  %16 = load i64, ptr %5, align 8, !tbaa !20
  %17 = shl i64 %16, 2
  %18 = lshr i64 %17, 2
  %19 = load i64, ptr %5, align 8, !tbaa !20
  %20 = icmp ne i64 %18, %19
  br i1 %20, label %21, label %22

21:                                               ; preds = %11
  store i32 0, ptr %3, align 4
  br label %35

22:                                               ; preds = %11
  %23 = load i64, ptr %5, align 8, !tbaa !20
  %24 = shl i64 %23, 2
  store i64 %24, ptr %5, align 8, !tbaa !20
  %25 = load i64, ptr %5, align 8, !tbaa !20
  %26 = add i64 %25, 1
  %27 = load i64, ptr %5, align 8, !tbaa !20
  %28 = icmp ult i64 %26, %27
  br i1 %28, label %29, label %30

29:                                               ; preds = %22
  store i32 0, ptr %3, align 4
  br label %35

30:                                               ; preds = %22
  %31 = load i64, ptr %5, align 8, !tbaa !20
  %32 = add i64 %31, 1
  store i64 %32, ptr %5, align 8, !tbaa !20
  %33 = load i64, ptr %5, align 8, !tbaa !20
  %34 = load ptr, ptr %4, align 8, !tbaa !27
  store i64 %33, ptr %34, align 8, !tbaa !20
  store i32 1, ptr %3, align 4
  br label %35

35:                                               ; preds = %30, %29, %21, %10
  %36 = load i32, ptr %3, align 4
  ret i32 %36
}