; Function Attrs: mustprogress nofree norecurse nosync nounwind willreturn memory(argmem: write) uwtable
define hidden range(i32 0, 2) i32 @EVP_EncodedLength(ptr noundef writeonly captures(none) %0, i64 noundef %1) local_unnamed_addr #0 {
  %.not = icmp ult i64 %1, -4611686018427387906
  br i1 %.not, label %3, label %8

3:                                                ; preds = %2
  %4 = add nuw i64 %1, 2
  %5 = udiv i64 %4, 3
  %6 = shl nuw i64 %5, 2
  %7 = or disjoint i64 %6, 1
  store i64 %7, ptr %0, align 8, !tbaa !18
  br label %8

8:                                                ; preds = %2, %3
  %.0 = phi i32 [ 1, %3 ], [ 0, %2 ]
  ret i32 %.0
}